target datalayout = "e-m:e-p270:32:32-p271:32:32-p272:64:64-i64:64-i128:128-f80:128-n8:16:32:64-S128"
target triple = "x86_64-pc-linux-gnu"

%"struct.Luau::CodeGen::A64::RegisterA64" = type { i8 }
%"class.Luau::CodeGen::A64::AssemblyBuilderA64" = type { %"class.std::vector", %"class.std::vector.0", %"class.std::__cxx11::basic_string", i8, i32, i32, %"class.std::vector.8", %"class.std::vector.0", i8, i8, i64, ptr, ptr }
%"class.std::vector" = type { %"struct.std::_Vector_base" }
%"struct.std::_Vector_base" = type { %"struct.std::_Vector_base<unsigned char, std::allocator<unsigned char>>::_Vector_impl" }
%"struct.std::_Vector_base<unsigned char, std::allocator<unsigned char>>::_Vector_impl" = type { %"struct.std::_Vector_base<unsigned char, std::allocator<unsigned char>>::_Vector_impl_data" }
%"struct.std::_Vector_base<unsigned char, std::allocator<unsigned char>>::_Vector_impl_data" = type { ptr, ptr, ptr }
%"class.std::__cxx11::basic_string" = type { %"struct.std::__cxx11::basic_string<char>::_Alloc_hider", i64, %union.anon }
%"struct.std::__cxx11::basic_string<char>::_Alloc_hider" = type { ptr }
%union.anon = type { i64, [8 x i8] }
%"class.std::vector.8" = type { %"struct.std::_Vector_base.9" }
%"struct.std::_Vector_base.9" = type { %"struct.std::_Vector_base<Luau::CodeGen::A64::AssemblyBuilderA64::Patch, std::allocator<Luau::CodeGen::A64::AssemblyBuilderA64::Patch>>::_Vector_impl" }
%"struct.std::_Vector_base<Luau::CodeGen::A64::AssemblyBuilderA64::Patch, std::allocator<Luau::CodeGen::A64::AssemblyBuilderA64::Patch>>::_Vector_impl" = type { %"struct.std::_Vector_base<Luau::CodeGen::A64::AssemblyBuilderA64::Patch, std::allocator<Luau::CodeGen::A64::AssemblyBuilderA64::Patch>>::_Vector_impl_data" }
%"struct.std::_Vector_base<Luau::CodeGen::A64::AssemblyBuilderA64::Patch, std::allocator<Luau::CodeGen::A64::AssemblyBuilderA64::Patch>>::_Vector_impl_data" = type { ptr, ptr, ptr }
%"class.std::vector.0" = type { %"struct.std::_Vector_base.1" }
%"struct.std::_Vector_base.1" = type { %"struct.std::_Vector_base<unsigned int, std::allocator<unsigned int>>::_Vector_impl" }
%"struct.std::_Vector_base<unsigned int, std::allocator<unsigned int>>::_Vector_impl" = type { %"struct.std::_Vector_base<unsigned int, std::allocator<unsigned int>>::_Vector_impl_data" }
%"struct.std::_Vector_base<unsigned int, std::allocator<unsigned int>>::_Vector_impl_data" = type { ptr, ptr, ptr }

@_ZN4Luau7CodeGen3A64L3xzrE = internal constant %"struct.Luau::CodeGen::A64::RegisterA64" { i8 -6 }, align 1
@_ZN4Luau7CodeGen3A64L3wzrE = internal constant %"struct.Luau::CodeGen::A64::RegisterA64" { i8 -7 }, align 1
@.str.7 = private unnamed_addr constant [4 x i8] c"cmp\00", align 1

; Function Attrs: mustprogress uwtable
define dso_local void @_ZN4Luau7CodeGen3A6418AssemblyBuilderA646commitEv(ptr noundef nonnull align 8 dereferenceable(176) %0) #0 align 2 {
  %2 = alloca ptr, align 8
  store ptr %0, ptr %2, align 8, !tbaa !4
  %3 = load ptr, ptr %2, align 8
  %4 = getelementptr inbounds nuw %"class.Luau::CodeGen::A64::AssemblyBuilderA64", ptr %3, i32 0, i32 12
  %5 = load ptr, ptr %4, align 8, !tbaa !41
  %6 = getelementptr inbounds nuw %"class.Luau::CodeGen::A64::AssemblyBuilderA64", ptr %3, i32 0, i32 11
  %7 = load ptr, ptr %6, align 8, !tbaa !40
  %8 = icmp eq ptr %5, %7
  br i1 %8, label %9, label %10

9:                                                ; preds = %1
  call void @_ZN4Luau7CodeGen3A6418AssemblyBuilderA646extendEv(ptr noundef nonnull align 8 dereferenceable(176) %3)
  br label %10

10:                                               ; preds = %9, %1
  ret void
}

; Function Attrs: mustprogress nounwind uwtable
define dso_local void @_ZN4Luau7CodeGen3A6418AssemblyBuilderA645placeEj(ptr noundef nonnull align 8 dereferenceable(176) %0, i32 noundef %1) #1 align 2 {
  %3 = alloca ptr, align 8
  %4 = alloca i32, align 4
  store ptr %0, ptr %3, align 8, !tbaa !4
  store i32 %1, ptr %4, align 4, !tbaa !11
  %5 = load ptr, ptr %3, align 8
  %6 = load i32, ptr %4, align 4, !tbaa !11
  %7 = getelementptr inbounds nuw %"class.Luau::CodeGen::A64::AssemblyBuilderA64", ptr %5, i32 0, i32 11
  %8 = load ptr, ptr %7, align 8, !tbaa !40
  %9 = getelementptr inbounds nuw i32, ptr %8, i32 1
  store ptr %9, ptr %7, align 8, !tbaa !40
  store i32 %6, ptr %8, align 4, !tbaa !11
  ret void
}

; Function Attrs: mustprogress uwtable
define dso_local void @_ZN4Luau7CodeGen3A6418AssemblyBuilderA648placeSR3EPKcNS1_11RegisterA64ES5_S5_hii(ptr noundef nonnull align 8 dereferenceable(176) %0, ptr noundef %1, i8 %2, i8 %3, i8 %4, i8 noundef zeroext %5, i32 noundef %6, i32 noundef %7) #0 align 2 {
  %9 = alloca %"struct.Luau::CodeGen::A64::RegisterA64", align 1
  %10 = alloca %"struct.Luau::CodeGen::A64::RegisterA64", align 1
  %11 = alloca %"struct.Luau::CodeGen::A64::RegisterA64", align 1
  %12 = alloca ptr, align 8
  %13 = alloca ptr, align 8
  %14 = alloca i8, align 1
  %15 = alloca i32, align 4
  %16 = alloca i32, align 4
  %17 = alloca %"struct.Luau::CodeGen::A64::RegisterA64", align 1
  %18 = alloca %"struct.Luau::CodeGen::A64::RegisterA64", align 1
  %19 = alloca %"struct.Luau::CodeGen::A64::RegisterA64", align 1
  %20 = alloca i32, align 4
  %21 = getelementptr inbounds nuw %"struct.Luau::CodeGen::A64::RegisterA64", ptr %9, i32 0, i32 0
  store i8 %2, ptr %21, align 1
  %22 = getelementptr inbounds nuw %"struct.Luau::CodeGen::A64::RegisterA64", ptr %10, i32 0, i32 0
  store i8 %3, ptr %22, align 1
  %23 = getelementptr inbounds nuw %"struct.Luau::CodeGen::A64::RegisterA64", ptr %11, i32 0, i32 0
  store i8 %4, ptr %23, align 1
  store ptr %0, ptr %12, align 8, !tbaa !4
  store ptr %1, ptr %13, align 8, !tbaa !61
  store i8 %5, ptr %14, align 1, !tbaa !58
  store i32 %6, ptr %15, align 4, !tbaa !11
  store i32 %7, ptr %16, align 4, !tbaa !11
  %24 = load ptr, ptr %12, align 8
  %25 = getelementptr inbounds nuw %"class.Luau::CodeGen::A64::AssemblyBuilderA64", ptr %24, i32 0, i32 3
  %26 = load i8, ptr %25, align 8, !tbaa !15, !range !13, !noundef !14
  %27 = trunc i8 %26 to i1
  br i1 %27, label %28, label %37

28:                                               ; preds = %8
  %29 = load ptr, ptr %13, align 8, !tbaa !61
  call void @llvm.memcpy.p0.p0.i64(ptr align 1 %17, ptr align 1 %9, i64 1, i1 false), !tbaa.struct !57
  call void @llvm.memcpy.p0.p0.i64(ptr align 1 %18, ptr align 1 %10, i64 1, i1 false), !tbaa.struct !57
  call void @llvm.memcpy.p0.p0.i64(ptr align 1 %19, ptr align 1 %11, i64 1, i1 false), !tbaa.struct !57
  %30 = load i32, ptr %15, align 4, !tbaa !11
  %31 = getelementptr inbounds nuw %"struct.Luau::CodeGen::A64::RegisterA64", ptr %17, i32 0, i32 0
  %32 = load i8, ptr %31, align 1
  %33 = getelementptr inbounds nuw %"struct.Luau::CodeGen::A64::RegisterA64", ptr %18, i32 0, i32 0
  %34 = load i8, ptr %33, align 1
  %35 = getelementptr inbounds nuw %"struct.Luau::CodeGen::A64::RegisterA64", ptr %19, i32 0, i32 0
  %36 = load i8, ptr %35, align 1
  call void @_ZN4Luau7CodeGen3A6418AssemblyBuilderA643logEPKcNS1_11RegisterA64ES5_S5_i(ptr noundef nonnull align 8 dereferenceable(176) %24, ptr noundef %29, i8 %32, i8 %34, i8 %36, i32 noundef %30)
  br label %37

37:                                               ; preds = %28, %8
  call void @llvm.lifetime.start.p0(i64 4, ptr %20) #18
  %38 = load i8, ptr %9, align 1
  %39 = and i8 %38, 7
  %40 = icmp eq i8 %39, 2
  %41 = select i1 %40, i32 -2147483648, i32 0
  store i32 %41, ptr %20, align 4, !tbaa !11
  %42 = load i8, ptr %9, align 1
  %43 = lshr i8 %42, 3
  %44 = zext i8 %43 to i32
  %45 = load i8, ptr %10, align 1
  %46 = lshr i8 %45, 3
  %47 = zext i8 %46 to i32
  %48 = shl i32 %47, 5
  %49 = or i32 %44, %48
  %50 = load i32, ptr %15, align 4, !tbaa !11
  %51 = icmp slt i32 %50, 0
  br i1 %51, label %52, label %55

52:                                               ; preds = %37
  %53 = load i32, ptr %15, align 4, !tbaa !11
  %54 = sub nsw i32 0, %53
  br label %57

55:                                               ; preds = %37
  %56 = load i32, ptr %15, align 4, !tbaa !11
  br label %57

57:                                               ; preds = %55, %52
  %58 = phi i32 [ %54, %52 ], [ %56, %55 ]
  %59 = shl i32 %58, 10
  %60 = or i32 %49, %59
  %61 = load i8, ptr %11, align 1
  %62 = lshr i8 %61, 3
  %63 = zext i8 %62 to i32
  %64 = shl i32 %63, 16
  %65 = or i32 %60, %64
  %66 = load i32, ptr %16, align 4, !tbaa !11
  %67 = shl i32 %66, 21
  %68 = or i32 %65, %67
  %69 = load i32, ptr %15, align 4, !tbaa !11
  %70 = icmp slt i32 %69, 0
  %71 = zext i1 %70 to i32
  %72 = shl i32 %71, 22
  %73 = or i32 %68, %72
  %74 = load i8, ptr %14, align 1, !tbaa !58
  %75 = zext i8 %74 to i32
  %76 = shl i32 %75, 24
  %77 = or i32 %73, %76
  %78 = load i32, ptr %20, align 4, !tbaa !11
  %79 = or i32 %77, %78
  call void @_ZN4Luau7CodeGen3A6418AssemblyBuilderA645placeEj(ptr noundef nonnull align 8 dereferenceable(176) %24, i32 noundef %79)
  call void @_ZN4Luau7CodeGen3A6418AssemblyBuilderA646commitEv(ptr noundef nonnull align 8 dereferenceable(176) %24)
  call void @llvm.lifetime.end.p0(i64 4, ptr %20) #18
  ret void
}

; Function Attrs: mustprogress uwtable
define dso_local void @_ZN4Luau7CodeGen3A6418AssemblyBuilderA643cmpENS1_11RegisterA64ES3_(ptr noundef nonnull align 8 dereferenceable(176) %0, i8 %1, i8 %2) #0 align 2 {
  %4 = alloca %"struct.Luau::CodeGen::A64::RegisterA64", align 1
  %5 = alloca %"struct.Luau::CodeGen::A64::RegisterA64", align 1
  %6 = alloca ptr, align 8
  %7 = alloca %"struct.Luau::CodeGen::A64::RegisterA64", align 1
  %8 = alloca %"struct.Luau::CodeGen::A64::RegisterA64", align 1
  %9 = alloca %"struct.Luau::CodeGen::A64::RegisterA64", align 1
  %10 = alloca %"struct.Luau::CodeGen::A64::RegisterA64", align 1
  %11 = getelementptr inbounds nuw %"struct.Luau::CodeGen::A64::RegisterA64", ptr %4, i32 0, i32 0
  store i8 %1, ptr %11, align 1
  %12 = getelementptr inbounds nuw %"struct.Luau::CodeGen::A64::RegisterA64", ptr %5, i32 0, i32 0
  store i8 %2, ptr %12, align 1
  store ptr %0, ptr %6, align 8, !tbaa !4
  %13 = load ptr, ptr %6, align 8
  call void @llvm.lifetime.start.p0(i64 1, ptr %7) #18
  %14 = load i8, ptr %4, align 1
  %15 = and i8 %14, 7
  %16 = icmp eq i8 %15, 2
  br i1 %16, label %17, label %18

17:                                               ; preds = %3
  br label %19

18:                                               ; preds = %3
  br label %19

19:                                               ; preds = %18, %17
  %20 = phi ptr [ @_ZN4Luau7CodeGen3A64L3xzrE, %17 ], [ @_ZN4Luau7CodeGen3A64L3wzrE, %18 ]
  call void @llvm.memcpy.p0.p0.i64(ptr align 1 %7, ptr align 1 %20, i64 1, i1 false), !tbaa.struct !57
  call void @llvm.memcpy.p0.p0.i64(ptr align 1 %8, ptr align 1 %7, i64 1, i1 false), !tbaa.struct !57
  call void @llvm.memcpy.p0.p0.i64(ptr align 1 %9, ptr align 1 %4, i64 1, i1 false), !tbaa.struct !57
  call void @llvm.memcpy.p0.p0.i64(ptr align 1 %10, ptr align 1 %5, i64 1, i1 false), !tbaa.struct !57
  %21 = getelementptr inbounds nuw %"struct.Luau::CodeGen::A64::RegisterA64", ptr %8, i32 0, i32 0
  %22 = load i8, ptr %21, align 1
  %23 = getelementptr inbounds nuw %"struct.Luau::CodeGen::A64::RegisterA64", ptr %9, i32 0, i32 0
  %24 = load i8, ptr %23, align 1
  %25 = getelementptr inbounds nuw %"struct.Luau::CodeGen::A64::RegisterA64", ptr %10, i32 0, i32 0
  %26 = load i8, ptr %25, align 1
  call void @_ZN4Luau7CodeGen3A6418AssemblyBuilderA648placeSR3EPKcNS1_11RegisterA64ES5_S5_hii(ptr noundef nonnull align 8 dereferenceable(176) %13, ptr noundef @.str.7, i8 %22, i8 %24, i8 %26, i8 noundef zeroext 107, i32 noundef 0, i32 noundef 0)
  call void @llvm.lifetime.end.p0(i64 1, ptr %7) #18
  ret void
}