; Function Attrs: mustprogress uwtable
define dso_local void @_ZN4Luau7CodeGen3A6418AssemblyBuilderA643cmpENS1_11RegisterA64ES3_(ptr noundef nonnull align 8 dereferenceable(176) %0, i8 %1, i8 %2) local_unnamed_addr #0 align 2 {
  %4 = and i8 %1, 7
  %5 = icmp eq i8 %4, 2
  %.sroa.03.0.copyload = select i1 %5, i8 -6, i8 -7
  %6 = getelementptr inbounds nuw i8, ptr %0, i64 80
  %7 = load i8, ptr %6, align 8, !tbaa !14, !range !46, !noundef !47
  %8 = trunc nuw i8 %7 to i1
  br i1 %8, label %9, label %10

9:                                                ; preds = %3
  tail call void @_ZN4Luau7CodeGen3A6418AssemblyBuilderA643logEPKcNS1_11RegisterA64ES5_S5_i(ptr noundef nonnull align 8 dereferenceable(176) %0, ptr noundef nonnull @.str.7, i8 %.sroa.03.0.copyload, i8 %1, i8 %2, i32 noundef 0)
  br label %10

10:                                               ; preds = %9, %3
  %11 = and i8 %.sroa.03.0.copyload, 3
  %12 = icmp eq i8 %11, 2
  %13 = select i1 %12, i32 -2147483648, i32 0
  %14 = lshr i8 %1, 3
  %15 = zext nneg i8 %14 to i32
  %16 = shl nuw nsw i32 %15, 5
  %17 = lshr i8 %2, 3
  %18 = zext nneg i8 %17 to i32
  %19 = shl nuw nsw i32 %18, 16
  %20 = or disjoint i32 %13, %19
  %21 = or disjoint i32 %20, %16
  %22 = or disjoint i32 %21, 1795162143
  %23 = getelementptr inbounds nuw i8, ptr %0, i64 160
  %24 = load ptr, ptr %23, align 8, !tbaa !39
  %25 = getelementptr inbounds nuw i8, ptr %24, i64 4
  store ptr %25, ptr %23, align 8, !tbaa !39
  store i32 %22, ptr %24, align 4, !tbaa !48
  %26 = getelementptr inbounds nuw i8, ptr %0, i64 168
  %27 = load ptr, ptr %26, align 8, !tbaa !40
  %28 = icmp eq ptr %27, %25
  br i1 %28, label %29, label %_ZN4Luau7CodeGen3A6418AssemblyBuilderA648placeSR3EPKcNS1_11RegisterA64ES5_S5_hii.exit

29:                                               ; preds = %10
  tail call void @_ZN4Luau7CodeGen3A6418AssemblyBuilderA646extendEv(ptr noundef nonnull align 8 dereferenceable(176) %0)
  br label %_ZN4Luau7CodeGen3A6418AssemblyBuilderA648placeSR3EPKcNS1_11RegisterA64ES5_S5_hii.exit

_ZN4Luau7CodeGen3A6418AssemblyBuilderA648placeSR3EPKcNS1_11RegisterA64ES5_S5_hii.exit: ; preds = %10, %29
  ret void
}